target datalayout = "e-m:e-p270:32:32-p271:32:32-p272:64:64-i64:64-i128:128-f80:128-n8:16:32:64-S128"
target triple = "x86_64-pc-linux-gnu"

%struct.mbedtls_mpi = type { ptr, i16, i16 }
%struct.mbedtls_rsa_context = type { i32, i64, %struct.mbedtls_mpi, %struct.mbedtls_mpi, %struct.mbedtls_mpi, %struct.mbedtls_mpi, %struct.mbedtls_mpi, %struct.mbedtls_mpi, %struct.mbedtls_mpi, %struct.mbedtls_mpi, %struct.mbedtls_mpi, %struct.mbedtls_mpi, %struct.mbedtls_mpi, %struct.mbedtls_mpi, %struct.mbedtls_mpi, i32, i32 }

; Function Attrs: nounwind uwtable
define internal i32 @rsa_check_context(ptr noundef %0, i32 noundef %1, i32 noundef %2) #0 {
  %4 = alloca i32, align 4
  %5 = alloca ptr, align 8
  %6 = alloca i32, align 4
  %7 = alloca i32, align 4
  store ptr %0, ptr %5, align 8, !tbaa !3
  store i32 %1, ptr %6, align 4, !tbaa !12
  store i32 %2, ptr %7, align 4, !tbaa !12
  %8 = load ptr, ptr %5, align 8, !tbaa !3
  %9 = getelementptr inbounds nuw %struct.mbedtls_rsa_context, ptr %8, i32 0, i32 1
  %10 = load i64, ptr %9, align 8, !tbaa !19
  %11 = load ptr, ptr %5, align 8, !tbaa !3
  %12 = getelementptr inbounds nuw %struct.mbedtls_rsa_context, ptr %11, i32 0, i32 2
  %13 = call i64 @mbedtls_mpi_size(ptr noundef %12)
  %14 = icmp ne i64 %10, %13
  br i1 %14, label %20, label %15

15:                                               ; preds = %3
  %16 = load ptr, ptr %5, align 8, !tbaa !3
  %17 = getelementptr inbounds nuw %struct.mbedtls_rsa_context, ptr %16, i32 0, i32 1
  %18 = load i64, ptr %17, align 8, !tbaa !19
  %19 = icmp ugt i64 %18, 1024
  br i1 %19, label %20, label %21

20:                                               ; preds = %15, %3
  store i32 -16512, ptr %4, align 4
  br label %86

21:                                               ; preds = %15
  %22 = load ptr, ptr %5, align 8, !tbaa !3
  %23 = getelementptr inbounds nuw %struct.mbedtls_rsa_context, ptr %22, i32 0, i32 2
  %24 = call i32 @mbedtls_mpi_cmp_int(ptr noundef %23, i64 noundef 0)
  %25 = icmp sle i32 %24, 0
  br i1 %25, label %31, label %26

26:                                               ; preds = %21
  %27 = load ptr, ptr %5, align 8, !tbaa !3
  %28 = getelementptr inbounds nuw %struct.mbedtls_rsa_context, ptr %27, i32 0, i32 2
  %29 = call i32 @mbedtls_mpi_get_bit(ptr noundef %28, i64 noundef 0)
  %30 = icmp eq i32 %29, 0
  br i1 %30, label %31, label %32

31:                                               ; preds = %26, %21
  store i32 -16512, ptr %4, align 4
  br label %86

32:                                               ; preds = %26
  %33 = load i32, ptr %6, align 4, !tbaa !12
  %34 = icmp ne i32 %33, 0
  br i1 %34, label %35, label %56

35:                                               ; preds = %32
  %36 = load ptr, ptr %5, align 8, !tbaa !3
  %37 = getelementptr inbounds nuw %struct.mbedtls_rsa_context, ptr %36, i32 0, i32 5
  %38 = call i32 @mbedtls_mpi_cmp_int(ptr noundef %37, i64 noundef 0)
  %39 = icmp sle i32 %38, 0
  br i1 %39, label %55, label %40

40:                                               ; preds = %35
  %41 = load ptr, ptr %5, align 8, !tbaa !3
  %42 = getelementptr inbounds nuw %struct.mbedtls_rsa_context, ptr %41, i32 0, i32 5
  %43 = call i32 @mbedtls_mpi_get_bit(ptr noundef %42, i64 noundef 0)
  %44 = icmp eq i32 %43, 0
  br i1 %44, label %55, label %45

45:                                               ; preds = %40
  %46 = load ptr, ptr %5, align 8, !tbaa !3
  %47 = getelementptr inbounds nuw %struct.mbedtls_rsa_context, ptr %46, i32 0, i32 6
  %48 = call i32 @mbedtls_mpi_cmp_int(ptr noundef %47, i64 noundef 0)
  %49 = icmp sle i32 %48, 0
  br i1 %49, label %55, label %50

50:                                               ; preds = %45
  %51 = load ptr, ptr %5, align 8, !tbaa !3
  %52 = getelementptr inbounds nuw %struct.mbedtls_rsa_context, ptr %51, i32 0, i32 6
  %53 = call i32 @mbedtls_mpi_get_bit(ptr noundef %52, i64 noundef 0)
  %54 = icmp eq i32 %53, 0
  br i1 %54, label %55, label %56

55:                                               ; preds = %50, %45, %40, %35
  store i32 -16512, ptr %4, align 4
  br label %86

56:                                               ; preds = %50, %32
  %57 = load ptr, ptr %5, align 8, !tbaa !3
  %58 = getelementptr inbounds nuw %struct.mbedtls_rsa_context, ptr %57, i32 0, i32 3
  %59 = call i32 @mbedtls_mpi_cmp_int(ptr noundef %58, i64 noundef 0)
  %60 = icmp sle i32 %59, 0
  br i1 %60, label %61, label %62

61:                                               ; preds = %56
  store i32 -16512, ptr %4, align 4
  br label %86

62:                                               ; preds = %56
  %63 = load i32, ptr %6, align 4, !tbaa !12
  %64 = icmp ne i32 %63, 0
  br i1 %64, label %65, label %76

65:                                               ; preds = %62
  %66 = load ptr, ptr %5, align 8, !tbaa !3
  %67 = getelementptr inbounds nuw %struct.mbedtls_rsa_context, ptr %66, i32 0, i32 7
  %68 = call i32 @mbedtls_mpi_cmp_int(ptr noundef %67, i64 noundef 0)
  %69 = icmp sle i32 %68, 0
  br i1 %69, label %75, label %70

70:                                               ; preds = %65
  %71 = load ptr, ptr %5, align 8, !tbaa !3
  %72 = getelementptr inbounds nuw %struct.mbedtls_rsa_context, ptr %71, i32 0, i32 8
  %73 = call i32 @mbedtls_mpi_cmp_int(ptr noundef %72, i64 noundef 0)
  %74 = icmp sle i32 %73, 0
  br i1 %74, label %75, label %76

75:                                               ; preds = %70, %65
  store i32 -16512, ptr %4, align 4
  br label %86

76:                                               ; preds = %70, %62
  %77 = load i32, ptr %6, align 4, !tbaa !12
  %78 = icmp ne i32 %77, 0
  br i1 %78, label %79, label %85

79:                                               ; preds = %76
  %80 = load ptr, ptr %5, align 8, !tbaa !3
  %81 = getelementptr inbounds nuw %struct.mbedtls_rsa_context, ptr %80, i32 0, i32 9
  %82 = call i32 @mbedtls_mpi_cmp_int(ptr noundef %81, i64 noundef 0)
  %83 = icmp sle i32 %82, 0
  br i1 %83, label %84, label %85

84:                                               ; preds = %79
  store i32 -16512, ptr %4, align 4
  br label %86

85:                                               ; preds = %79, %76
  store i32 0, ptr %4, align 4
  br label %86

86:                                               ; preds = %85, %84, %75, %61, %55, %31, %20
  %87 = load i32, ptr %4, align 4
  ret i32 %87
}

; Function Attrs: nounwind uwtable
define hidden i32 @mbedtls_rsa_check_pubkey(ptr noundef %0) #0 {
  %2 = alloca i32, align 4
  %3 = alloca ptr, align 8
  store ptr %0, ptr %3, align 8, !tbaa !3
  %4 = load ptr, ptr %3, align 8, !tbaa !3
  %5 = call i32 @rsa_check_context(ptr noundef %4, i32 noundef 0, i32 noundef 0)
  %6 = icmp ne i32 %5, 0
  br i1 %6, label %7, label %8

7:                                                ; preds = %1
  store i32 -16896, ptr %2, align 4
  br label %33

8:                                                ; preds = %1
  %9 = load ptr, ptr %3, align 8, !tbaa !3
  %10 = getelementptr inbounds nuw %struct.mbedtls_rsa_context, ptr %9, i32 0, i32 2
  %11 = call i64 @mbedtls_mpi_bitlen(ptr noundef %10)
  %12 = icmp ult i64 %11, 128
  br i1 %12, label %13, label %14

13:                                               ; preds = %8
  store i32 -16896, ptr %2, align 4
  br label %33

14:                                               ; preds = %8
  %15 = load ptr, ptr %3, align 8, !tbaa !3
  %16 = getelementptr inbounds nuw %struct.mbedtls_rsa_context, ptr %15, i32 0, i32 3
  %17 = call i32 @mbedtls_mpi_get_bit(ptr noundef %16, i64 noundef 0)
  %18 = icmp eq i32 %17, 0
  br i1 %18, label %31, label %19

19:                                               ; preds = %14
  %20 = load ptr, ptr %3, align 8, !tbaa !3
  %21 = getelementptr inbounds nuw %struct.mbedtls_rsa_context, ptr %20, i32 0, i32 3
  %22 = call i64 @mbedtls_mpi_bitlen(ptr noundef %21)
  %23 = icmp ult i64 %22, 2
  br i1 %23, label %31, label %24

24:                                               ; preds = %19
  %25 = load ptr, ptr %3, align 8, !tbaa !3
  %26 = getelementptr inbounds nuw %struct.mbedtls_rsa_context, ptr %25, i32 0, i32 3
  %27 = load ptr, ptr %3, align 8, !tbaa !3
  %28 = getelementptr inbounds nuw %struct.mbedtls_rsa_context, ptr %27, i32 0, i32 2
  %29 = call i32 @mbedtls_mpi_cmp_mpi(ptr noundef %26, ptr noundef %28)
  %30 = icmp sge i32 %29, 0
  br i1 %30, label %31, label %32

31:                                               ; preds = %24, %19, %14
  store i32 -16896, ptr %2, align 4
  br label %33

32:                                               ; preds = %24
  store i32 0, ptr %2, align 4
  br label %33

33:                                               ; preds = %32, %31, %13, %7
  %34 = load i32, ptr %2, align 4
  ret i32 %34
}