; Function Attrs: nounwind uwtable
define hidden range(i32 -16896, 1) i32 @mbedtls_rsa_check_pubkey(ptr noundef %0) local_unnamed_addr #0 {
  %2 = getelementptr inbounds nuw i8, ptr %0, i64 8
  %3 = load i64, ptr %2, align 8, !tbaa !12
  %4 = getelementptr inbounds nuw i8, ptr %0, i64 16
  %5 = tail call i64 @mbedtls_mpi_size(ptr noundef nonnull %4) #14
  %.not.i = icmp eq i64 %3, %5
  br i1 %.not.i, label %6, label %rsa_check_context.exit.thread

6:                                                ; preds = %1
  %7 = load i64, ptr %2, align 8, !tbaa !12
  %8 = icmp ugt i64 %7, 1024
  br i1 %8, label %rsa_check_context.exit.thread, label %9

9:                                                ; preds = %6
  %10 = tail call i32 @mbedtls_mpi_cmp_int(ptr noundef nonnull %4, i64 noundef 0) #14
  %11 = icmp slt i32 %10, 1
  br i1 %11, label %rsa_check_context.exit.thread, label %12

12:                                               ; preds = %9
  %13 = tail call i32 @mbedtls_mpi_get_bit(ptr noundef nonnull %4, i64 noundef 0) #14
  %14 = icmp eq i32 %13, 0
  br i1 %14, label %rsa_check_context.exit.thread, label %15

15:                                               ; preds = %12
  %16 = getelementptr inbounds nuw i8, ptr %0, i64 32
  %17 = tail call i32 @mbedtls_mpi_cmp_int(ptr noundef nonnull %16, i64 noundef 0) #14
  %18 = icmp slt i32 %17, 1
  br i1 %18, label %rsa_check_context.exit.thread, label %rsa_check_context.exit

rsa_check_context.exit:                           ; preds = %15
  %19 = tail call i64 @mbedtls_mpi_bitlen(ptr noundef nonnull %4) #14
  %20 = icmp ult i64 %19, 128
  br i1 %20, label %rsa_check_context.exit.thread, label %21

21:                                               ; preds = %rsa_check_context.exit
  %22 = tail call i32 @mbedtls_mpi_get_bit(ptr noundef nonnull %16, i64 noundef 0) #14
  %23 = icmp eq i32 %22, 0
  br i1 %23, label %rsa_check_context.exit.thread, label %24

24:                                               ; preds = %21
  %25 = tail call i64 @mbedtls_mpi_bitlen(ptr noundef nonnull %16) #14
  %26 = icmp ult i64 %25, 2
  br i1 %26, label %rsa_check_context.exit.thread, label %27

27:                                               ; preds = %24
  %28 = tail call i32 @mbedtls_mpi_cmp_mpi(ptr noundef nonnull %16, ptr noundef nonnull %4) #14
  %.inv = icmp slt i32 %28, 0
  %spec.select = select i1 %.inv, i32 0, i32 -16896
  br label %rsa_check_context.exit.thread

rsa_check_context.exit.thread:                    ; preds = %15, %9, %12, %1, %6, %27, %21, %24, %rsa_check_context.exit
  %.0 = phi i32 [ -16896, %rsa_check_context.exit ], [ -16896, %24 ], [ -16896, %21 ], [ %spec.select, %27 ], [ -16896, %6 ], [ -16896, %1 ], [ -16896, %12 ], [ -16896, %9 ], [ -16896, %15 ]
  ret i32 %.0
}